; Function Attrs: mustprogress uwtable
define void @_ZN2cv9GCompiledC2Ev(ptr noundef nonnull writeonly align 8 captures(none) dereferenceable(16) initializes((0, 16)) %0) unnamed_addr #3 align 2 personality ptr @__gxx_personality_v0 {
  %2 = tail call noalias noundef nonnull dereferenceable(56) ptr @_Znwm(i64 noundef 56) #29
  tail call void @llvm.memset.p0.i64(ptr noundef nonnull align 8 dereferenceable(56) %2, i8 0, i64 56, i1 false)
  store ptr %2, ptr %0, align 8, !tbaa !31
  %3 = getelementptr inbounds nuw i8, ptr %0, i64 8
  store ptr null, ptr %3, align 8, !tbaa !36
  %4 = invoke noalias noundef nonnull dereferenceable(24) ptr @_Znwm(i64 noundef 24) #29
          to label %_ZNSt14__shared_countILN9__gnu_cxx12_Lock_policyE2EEC2IPN2cv9GCompiled4PrivEEET_.exit unwind label %5

5:                                                ; preds = %1
  %6 = landingpad { ptr, i32 }
          catch ptr null
  %7 = extractvalue { ptr, i32 } %6, 0
  %8 = tail call ptr @__cxa_begin_catch(ptr %7) #25
  tail call void @_ZN2cv9GCompiled4PrivD2Ev(ptr noundef nonnull align 8 dereferenceable(56) %2) #25
  tail call void @_ZdlPv(ptr noundef nonnull %2) #27
  invoke void @__cxa_rethrow() #28
          to label %15 unwind label %9

9:                                                ; preds = %5
  %10 = landingpad { ptr, i32 }
          cleanup
  invoke void @__cxa_end_catch()
          to label %11 unwind label %12

11:                                               ; preds = %9
  resume { ptr, i32 } %10

12:                                               ; preds = %9
  %13 = landingpad { ptr, i32 }
          catch ptr null
  %14 = extractvalue { ptr, i32 } %13, 0
  tail call void @__clang_call_terminate(ptr %14) #26
  unreachable

15:                                               ; preds = %5
  unreachable

_ZNSt14__shared_countILN9__gnu_cxx12_Lock_policyE2EEC2IPN2cv9GCompiled4PrivEEET_.exit: ; preds = %1
  %16 = getelementptr inbounds nuw i8, ptr %4, i64 8
  store i32 1, ptr %16, align 8, !tbaa !37
  %17 = getelementptr inbounds nuw i8, ptr %4, i64 12
  store i32 1, ptr %17, align 4, !tbaa !40
  store ptr getelementptr inbounds nuw inrange(-16, 40) (i8, ptr @_ZTVSt15_Sp_counted_ptrIPN2cv9GCompiled4PrivELN9__gnu_cxx12_Lock_policyE2EE, i64 16), ptr %4, align 8, !tbaa !8
  %18 = getelementptr inbounds nuw i8, ptr %4, i64 16
  store ptr %2, ptr %18, align 8, !tbaa !41
  store ptr %4, ptr %3, align 8, !tbaa !36
  ret void
}